target datalayout = "e-m:e-p270:32:32-p271:32:32-p272:64:64-i64:64-i128:128-f80:128-n8:16:32:64-S128"
target triple = "x86_64-pc-linux-gnu"

%class.btITaskScheduler = type <{ ptr, ptr, i32, i8, [3 x i8] }>

; Function Attrs: mustprogress nounwind uwtable
define dso_local void @_ZN16btITaskSchedulerC2EPKc(ptr noundef nonnull align 8 dereferenceable(21) %0, ptr noundef %1) unnamed_addr #1 align 2 {
  %3 = alloca ptr, align 8
  %4 = alloca ptr, align 8
  store ptr %0, ptr %3, align 8, !tbaa !20
  store ptr %1, ptr %4, align 8, !tbaa !22
  %5 = load ptr, ptr %3, align 8
  store ptr getelementptr inbounds inrange(-16, 80) ({ [12 x ptr] }, ptr @_ZTV16btITaskScheduler, i32 0, i32 0, i32 2), ptr %5, align 8, !tbaa !24
  %6 = load ptr, ptr %4, align 8, !tbaa !22
  %7 = getelementptr inbounds nuw %class.btITaskScheduler, ptr %5, i32 0, i32 1
  store ptr %6, ptr %7, align 8, !tbaa !26
  %8 = getelementptr inbounds nuw %class.btITaskScheduler, ptr %5, i32 0, i32 2
  store i32 0, ptr %8, align 8, !tbaa !29
  %9 = getelementptr inbounds nuw %class.btITaskScheduler, ptr %5, i32 0, i32 3
  store i8 0, ptr %9, align 4, !tbaa !30
  ret void
}