; Function Attrs: mustprogress nofree norecurse nosync nounwind willreturn memory(argmem: write) uwtable
define dso_local void @_ZN16btITaskSchedulerC2EPKc(ptr noundef nonnull writeonly align 8 captures(none) dereferenceable(21) initializes((0, 21)) %0, ptr noundef %1) unnamed_addr #4 align 2 {
  store ptr getelementptr inbounds nuw inrange(-16, 80) (i8, ptr @_ZTV16btITaskScheduler, i64 16), ptr %0, align 8, !tbaa !11
  %3 = getelementptr inbounds nuw i8, ptr %0, i64 8
  store ptr %1, ptr %3, align 8, !tbaa !13
  %4 = getelementptr inbounds nuw i8, ptr %0, i64 16
  store i32 0, ptr %4, align 8, !tbaa !18
  %5 = getelementptr inbounds nuw i8, ptr %0, i64 20
  store i8 0, ptr %5, align 4, !tbaa !19
  ret void
}